target datalayout = "e-m:e-p270:32:32-p271:32:32-p272:64:64-i64:64-i128:128-f80:128-n8:16:32:64-S128"
target triple = "x86_64-pc-linux-gnu"

%struct.GCstr = type { %struct.GCRef, i8, i8, i8, i8, i32, i32, i32 }
%struct.GCRef = type { i64 }
%struct.CTState = type { ptr, i32, i32, ptr, ptr, ptr, %struct.CCallback, [128 x i16] }
%struct.CCallback = type { [8 x %union.FPRCBArg], [8 x i64], ptr, ptr, ptr, i32, i32, i32 }
%union.FPRCBArg = type { double }
%struct.CPState = type { i32, i32, %struct.CPValue, ptr, ptr, ptr, %struct.SBuf, ptr, ptr, ptr, ptr, i32, i32, i32, i32, [7 x i8], i8 }
%struct.CPValue = type { %union.anon, i32 }
%union.anon = type { i32 }
%struct.SBuf = type { ptr, ptr, ptr, %struct.MRef }
%struct.MRef = type { i64 }

; Function Attrs: noinline noreturn nounwind uwtable
define internal void @cp_err_badidx(ptr noundef %0, ptr noundef %1) #5 {
  %3 = alloca ptr, align 8
  %4 = alloca ptr, align 8
  %5 = alloca ptr, align 8
  store ptr %0, ptr %3, align 8, !tbaa !20
  store ptr %1, ptr %4, align 8, !tbaa !32
  call void @llvm.lifetime.start.p0(i64 8, ptr %5) #13
  %6 = load ptr, ptr %3, align 8, !tbaa !20
  %7 = getelementptr inbounds nuw %struct.CPState, ptr %6, i32 0, i32 8
  %8 = load ptr, ptr %7, align 8, !tbaa !22
  %9 = getelementptr inbounds nuw %struct.CTState, ptr %8, i32 0, i32 3
  %10 = load ptr, ptr %9, align 8, !tbaa !134
  %11 = load ptr, ptr %4, align 8, !tbaa !32
  %12 = load ptr, ptr %3, align 8, !tbaa !20
  %13 = getelementptr inbounds nuw %struct.CPState, ptr %12, i32 0, i32 8
  %14 = load ptr, ptr %13, align 8, !tbaa !22
  %15 = getelementptr inbounds nuw %struct.CTState, ptr %14, i32 0, i32 0
  %16 = load ptr, ptr %15, align 8, !tbaa !88
  %17 = ptrtoint ptr %11 to i64
  %18 = ptrtoint ptr %16 to i64
  %19 = sub i64 %17, %18
  %20 = sdiv exact i64 %19, 24
  %21 = trunc i64 %20 to i32
  %22 = call ptr @lj_ctype_repr(ptr noundef %10, i32 noundef %21, ptr noundef null)
  store ptr %22, ptr %5, align 8, !tbaa !4
  %23 = load ptr, ptr %3, align 8, !tbaa !20
  %24 = load ptr, ptr %5, align 8, !tbaa !4
  %25 = getelementptr inbounds %struct.GCstr, ptr %24, i64 1
  call void (ptr, i32, i32, ...) @cp_errmsg(ptr noundef %23, i32 noundef 0, i32 noundef 3510, ptr noundef %25) #15
  unreachable
}