; Function Attrs: noinline noreturn nounwind uwtable
define internal fastcc void @cp_err_badidx(ptr noundef %0, ptr noundef %1) unnamed_addr #5 {
  %3 = getelementptr inbounds nuw i8, ptr %0, i64 80
  %4 = load ptr, ptr %3, align 8, !tbaa !14
  %5 = getelementptr inbounds nuw i8, ptr %4, i64 16
  %6 = load ptr, ptr %5, align 8, !tbaa !129
  %7 = load ptr, ptr %4, align 8, !tbaa !74
  %8 = ptrtoint ptr %1 to i64
  %9 = ptrtoint ptr %7 to i64
  %10 = sub i64 %8, %9
  %11 = sdiv exact i64 %10, 24
  %12 = trunc i64 %11 to i32
  %13 = tail call ptr @lj_ctype_repr(ptr noundef %6, i32 noundef %12, ptr noundef null) #15
  %14 = getelementptr inbounds nuw i8, ptr %13, i64 24
  tail call void (ptr, i32, i32, ...) @cp_errmsg(ptr noundef %0, i32 noundef 0, i32 noundef 3510, ptr noundef nonnull %14) #16
  unreachable
}